target datalayout = "e-m:e-p270:32:32-p271:32:32-p272:64:64-i64:64-i128:128-f80:128-n8:16:32:64-S128"
target triple = "x86_64-pc-linux-gnu"

@_ZN6dmg_fpL6hexdigE = internal global [256 x i8] zeroinitializer, align 16
@.str.6 = private unnamed_addr constant [11 x i8] c"0123456789\00", align 1
@.str.7 = private unnamed_addr constant [7 x i8] c"abcdef\00", align 1
@.str.8 = private unnamed_addr constant [7 x i8] c"ABCDEF\00", align 1

; Function Attrs: mustprogress nounwind uwtable
define internal void @_ZN6dmg_fpL6htinitEPhS0_i(ptr noundef %0, ptr noundef %1, i32 noundef %2) #2 {
  %4 = alloca ptr, align 8
  %5 = alloca ptr, align 8
  %6 = alloca i32, align 4
  %7 = alloca i32, align 4
  %8 = alloca i32, align 4
  store ptr %0, ptr %4, align 8, !tbaa !3
  store ptr %1, ptr %5, align 8, !tbaa !3
  store i32 %2, ptr %6, align 4, !tbaa !14
  call void @llvm.lifetime.start.p0(i64 4, ptr %7) #9
  call void @llvm.lifetime.start.p0(i64 4, ptr %8) #9
  store i32 0, ptr %7, align 4, !tbaa !14
  br label %9

9:                                                ; preds = %26, %3
  %10 = load ptr, ptr %5, align 8, !tbaa !3
  %11 = load i32, ptr %7, align 4, !tbaa !14
  %12 = sext i32 %11 to i64
  %13 = getelementptr inbounds i8, ptr %10, i64 %12
  %14 = load i8, ptr %13, align 1, !tbaa !15
  %15 = zext i8 %14 to i32
  store i32 %15, ptr %8, align 4, !tbaa !14
  %16 = icmp ne i32 %15, 0
  br i1 %16, label %17, label %29

17:                                               ; preds = %9
  %18 = load i32, ptr %7, align 4, !tbaa !14
  %19 = load i32, ptr %6, align 4, !tbaa !14
  %20 = add nsw i32 %18, %19
  %21 = trunc i32 %20 to i8
  %22 = load ptr, ptr %4, align 8, !tbaa !3
  %23 = load i32, ptr %8, align 4, !tbaa !14
  %24 = sext i32 %23 to i64
  %25 = getelementptr inbounds i8, ptr %22, i64 %24
  store i8 %21, ptr %25, align 1, !tbaa !15
  br label %26

26:                                               ; preds = %17
  %27 = load i32, ptr %7, align 4, !tbaa !14
  %28 = add nsw i32 %27, 1
  store i32 %28, ptr %7, align 4, !tbaa !14
  br label %9, !llvm.loop !97

29:                                               ; preds = %9
  call void @llvm.lifetime.end.p0(i64 4, ptr %8) #9
  call void @llvm.lifetime.end.p0(i64 4, ptr %7) #9
  ret void
}

; Function Attrs: mustprogress uwtable
define internal void @_ZN6dmg_fpL11hexdig_initEv() #0 {
  call void @_ZN6dmg_fpL6htinitEPhS0_i(ptr noundef @_ZN6dmg_fpL6hexdigE, ptr noundef @.str.6, i32 noundef 16)
  call void @_ZN6dmg_fpL6htinitEPhS0_i(ptr noundef @_ZN6dmg_fpL6hexdigE, ptr noundef @.str.7, i32 noundef 26)
  call void @_ZN6dmg_fpL6htinitEPhS0_i(ptr noundef @_ZN6dmg_fpL6hexdigE, ptr noundef @.str.8, i32 noundef 26)
  ret void
}

; Function Attrs: mustprogress uwtable
define internal void @_ZN6dmg_fpL6hexnanEPNS_1UEPPKc(ptr noundef %0, ptr noundef %1) #0 {
  %3 = alloca ptr, align 8
  %4 = alloca ptr, align 8
  %5 = alloca i32, align 4
  %6 = alloca [2 x i32], align 4
  %7 = alloca ptr, align 8
  %8 = alloca i32, align 4
  %9 = alloca i32, align 4
  %10 = alloca i32, align 4
  %11 = alloca i32, align 4
  store ptr %0, ptr %3, align 8, !tbaa !47
  store ptr %1, ptr %4, align 8, !tbaa !8
  call void @llvm.lifetime.start.p0(i64 4, ptr %5) #9
  call void @llvm.lifetime.start.p0(i64 8, ptr %6) #9
  call void @llvm.lifetime.start.p0(i64 8, ptr %7) #9
  call void @llvm.lifetime.start.p0(i64 4, ptr %8) #9
  call void @llvm.lifetime.start.p0(i64 4, ptr %9) #9
  call void @llvm.lifetime.start.p0(i64 4, ptr %10) #9
  call void @llvm.lifetime.start.p0(i64 4, ptr %11) #9
  %12 = load i8, ptr getelementptr inbounds ([256 x i8], ptr @_ZN6dmg_fpL6hexdigE, i64 0, i64 48), align 16, !tbaa !15
  %13 = icmp ne i8 %12, 0
  br i1 %13, label %15, label %14

14:                                               ; preds = %2
  call void @_ZN6dmg_fpL11hexdig_initEv()
  br label %15

15:                                               ; preds = %14, %2
  %16 = getelementptr inbounds [2 x i32], ptr %6, i64 0, i64 1
  store i32 0, ptr %16, align 4, !tbaa !14
  %17 = getelementptr inbounds [2 x i32], ptr %6, i64 0, i64 0
  store i32 0, ptr %17, align 4, !tbaa !14
  store i32 0, ptr %11, align 4, !tbaa !14
  store i32 0, ptr %9, align 4, !tbaa !14
  store i32 1, ptr %10, align 4, !tbaa !14
  %18 = load ptr, ptr %4, align 8, !tbaa !8
  %19 = load ptr, ptr %18, align 8, !tbaa !3
  store ptr %19, ptr %7, align 8, !tbaa !3
  %20 = load ptr, ptr %7, align 8, !tbaa !3
  %21 = getelementptr inbounds i8, ptr %20, i64 1
  %22 = load i8, ptr %21, align 1, !tbaa !15
  %23 = zext i8 %22 to i32
  store i32 %23, ptr %5, align 4, !tbaa !14
  br label %24

24:                                               ; preds = %35, %15
  %25 = load i32, ptr %5, align 4, !tbaa !14
  %26 = icmp ne i32 %25, 0
  br i1 %26, label %27, label %30

27:                                               ; preds = %24
  %28 = load i32, ptr %5, align 4, !tbaa !14
  %29 = icmp ule i32 %28, 32
  br label %30

30:                                               ; preds = %27, %24
  %31 = phi i1 [ false, %24 ], [ %29, %27 ]
  br i1 %31, label %32, label %40

32:                                               ; preds = %30
  %33 = load ptr, ptr %7, align 8, !tbaa !3
  %34 = getelementptr inbounds nuw i8, ptr %33, i32 1
  store ptr %34, ptr %7, align 8, !tbaa !3
  br label %35

35:                                               ; preds = %32
  %36 = load ptr, ptr %7, align 8, !tbaa !3
  %37 = getelementptr inbounds i8, ptr %36, i64 1
  %38 = load i8, ptr %37, align 1, !tbaa !15
  %39 = zext i8 %38 to i32
  store i32 %39, ptr %5, align 4, !tbaa !14
  br label %24, !llvm.loop !48

40:                                               ; preds = %30
  %41 = load ptr, ptr %7, align 8, !tbaa !3
  %42 = getelementptr inbounds i8, ptr %41, i64 1
  %43 = load i8, ptr %42, align 1, !tbaa !15
  %44 = sext i8 %43 to i32
  %45 = icmp eq i32 %44, 48
  br i1 %45, label %46, label %61

46:                                               ; preds = %40
  %47 = load ptr, ptr %7, align 8, !tbaa !3
  %48 = getelementptr inbounds i8, ptr %47, i64 2
  %49 = load i8, ptr %48, align 1, !tbaa !15
  %50 = sext i8 %49 to i32
  %51 = icmp eq i32 %50, 120
  br i1 %51, label %58, label %52

52:                                               ; preds = %46
  %53 = load ptr, ptr %7, align 8, !tbaa !3
  %54 = getelementptr inbounds i8, ptr %53, i64 2
  %55 = load i8, ptr %54, align 1, !tbaa !15
  %56 = sext i8 %55 to i32
  %57 = icmp eq i32 %56, 88
  br i1 %57, label %58, label %61

58:                                               ; preds = %52, %46
  %59 = load ptr, ptr %7, align 8, !tbaa !3
  %60 = getelementptr inbounds i8, ptr %59, i64 2
  store ptr %60, ptr %7, align 8, !tbaa !3
  br label %61

61:                                               ; preds = %58, %52, %40
  %62 = load ptr, ptr %7, align 8, !tbaa !3
  %63 = getelementptr inbounds nuw i8, ptr %62, i32 1
  store ptr %63, ptr %7, align 8, !tbaa !3
  %64 = load i8, ptr %63, align 1, !tbaa !15
  %65 = zext i8 %64 to i32
  store i32 %65, ptr %5, align 4, !tbaa !14
  br label %66

66:                                               ; preds = %135, %61
  %67 = load i32, ptr %5, align 4, !tbaa !14
  %68 = icmp ne i32 %67, 0
  br i1 %68, label %69, label %140

69:                                               ; preds = %66
  %70 = load i32, ptr %5, align 4, !tbaa !14
  %71 = zext i32 %70 to i64
  %72 = getelementptr inbounds nuw [256 x i8], ptr @_ZN6dmg_fpL6hexdigE, i64 0, i64 %71
  %73 = load i8, ptr %72, align 1, !tbaa !15
  %74 = zext i8 %73 to i32
  store i32 %74, ptr %8, align 4, !tbaa !14
  %75 = load i32, ptr %8, align 4, !tbaa !14
  %76 = icmp ne i32 %75, 0
  br i1 %76, label %77, label %80

77:                                               ; preds = %69
  %78 = load i32, ptr %8, align 4, !tbaa !14
  %79 = and i32 %78, 15
  store i32 %79, ptr %5, align 4, !tbaa !14
  br label %108

80:                                               ; preds = %69
  %81 = load i32, ptr %5, align 4, !tbaa !14
  %82 = icmp ule i32 %81, 32
  br i1 %82, label %83, label %91

83:                                               ; preds = %80
  %84 = load i32, ptr %10, align 4, !tbaa !14
  %85 = icmp ne i32 %84, 0
  br i1 %85, label %86, label %90

86:                                               ; preds = %83
  %87 = load i32, ptr %9, align 4, !tbaa !14
  %88 = icmp ne i32 %87, 0
  br i1 %88, label %89, label %90

89:                                               ; preds = %86
  store i32 0, ptr %10, align 4, !tbaa !14
  store i32 1, ptr %11, align 4, !tbaa !14
  br label %90

90:                                               ; preds = %89, %86, %83
  br label %135

91:                                               ; preds = %80
  br label %92

92:                                               ; preds = %104, %91
  %93 = load i32, ptr %5, align 4, !tbaa !14
  %94 = icmp eq i32 %93, 41
  br i1 %94, label %95, label %99

95:                                               ; preds = %92
  %96 = load ptr, ptr %7, align 8, !tbaa !3
  %97 = getelementptr inbounds i8, ptr %96, i64 1
  %98 = load ptr, ptr %4, align 8, !tbaa !8
  store ptr %97, ptr %98, align 8, !tbaa !3
  br label %107

99:                                               ; preds = %92
  %100 = load ptr, ptr %7, align 8, !tbaa !3
  %101 = getelementptr inbounds nuw i8, ptr %100, i32 1
  store ptr %101, ptr %7, align 8, !tbaa !3
  %102 = load i8, ptr %101, align 1, !tbaa !15
  %103 = sext i8 %102 to i32
  store i32 %103, ptr %5, align 4, !tbaa !14
  br label %104

104:                                              ; preds = %99
  %105 = load i32, ptr %5, align 4, !tbaa !14
  %106 = icmp ne i32 %105, 0
  br i1 %106, label %92, label %107, !llvm.loop !49

107:                                              ; preds = %104, %95
  br label %140

108:                                              ; preds = %77
  store i32 1, ptr %9, align 4, !tbaa !14
  %109 = load i32, ptr %11, align 4, !tbaa !14
  %110 = icmp ne i32 %109, 0
  br i1 %110, label %111, label %116

111:                                              ; preds = %108
  store i32 0, ptr %11, align 4, !tbaa !14
  %112 = getelementptr inbounds [2 x i32], ptr %6, i64 0, i64 1
  %113 = load i32, ptr %112, align 4, !tbaa !14
  %114 = getelementptr inbounds [2 x i32], ptr %6, i64 0, i64 0
  store i32 %113, ptr %114, align 4, !tbaa !14
  %115 = getelementptr inbounds [2 x i32], ptr %6, i64 0, i64 1
  store i32 0, ptr %115, align 4, !tbaa !14
  br label %116

116:                                              ; preds = %111, %108
  %117 = load i32, ptr %10, align 4, !tbaa !14
  %118 = icmp ne i32 %117, 0
  br i1 %118, label %119, label %128

119:                                              ; preds = %116
  %120 = getelementptr inbounds [2 x i32], ptr %6, i64 0, i64 0
  %121 = load i32, ptr %120, align 4, !tbaa !14
  %122 = shl i32 %121, 4
  %123 = getelementptr inbounds [2 x i32], ptr %6, i64 0, i64 1
  %124 = load i32, ptr %123, align 4, !tbaa !14
  %125 = lshr i32 %124, 28
  %126 = or i32 %122, %125
  %127 = getelementptr inbounds [2 x i32], ptr %6, i64 0, i64 0
  store i32 %126, ptr %127, align 4, !tbaa !14
  br label %128

128:                                              ; preds = %119, %116
  %129 = getelementptr inbounds [2 x i32], ptr %6, i64 0, i64 1
  %130 = load i32, ptr %129, align 4, !tbaa !14
  %131 = shl i32 %130, 4
  %132 = load i32, ptr %5, align 4, !tbaa !14
  %133 = or i32 %131, %132
  %134 = getelementptr inbounds [2 x i32], ptr %6, i64 0, i64 1
  store i32 %133, ptr %134, align 4, !tbaa !14
  br label %135

135:                                              ; preds = %128, %90
  %136 = load ptr, ptr %7, align 8, !tbaa !3
  %137 = getelementptr inbounds nuw i8, ptr %136, i32 1
  store ptr %137, ptr %7, align 8, !tbaa !3
  %138 = load i8, ptr %137, align 1, !tbaa !15
  %139 = zext i8 %138 to i32
  store i32 %139, ptr %5, align 4, !tbaa !14
  br label %66, !llvm.loop !50

140:                                              ; preds = %107, %66
  %141 = getelementptr inbounds [2 x i32], ptr %6, i64 0, i64 0
  %142 = load i32, ptr %141, align 4, !tbaa !14
  %143 = and i32 %142, 1048575
  store i32 %143, ptr %141, align 4, !tbaa !14
  %144 = icmp ne i32 %143, 0
  br i1 %144, label %149, label %145

145:                                              ; preds = %140
  %146 = getelementptr inbounds [2 x i32], ptr %6, i64 0, i64 1
  %147 = load i32, ptr %146, align 4, !tbaa !14
  %148 = icmp ne i32 %147, 0
  br i1 %148, label %149, label %159

149:                                              ; preds = %145, %140
  %150 = getelementptr inbounds [2 x i32], ptr %6, i64 0, i64 0
  %151 = load i32, ptr %150, align 4, !tbaa !14
  %152 = or i32 2146435072, %151
  %153 = load ptr, ptr %3, align 8, !tbaa !47
  %154 = getelementptr inbounds [2 x i32], ptr %153, i64 0, i64 1
  store i32 %152, ptr %154, align 4, !tbaa !15
  %155 = getelementptr inbounds [2 x i32], ptr %6, i64 0, i64 1
  %156 = load i32, ptr %155, align 4, !tbaa !14
  %157 = load ptr, ptr %3, align 8, !tbaa !47
  %158 = getelementptr inbounds [2 x i32], ptr %157, i64 0, i64 0
  store i32 %156, ptr %158, align 8, !tbaa !15
  br label %159

159:                                              ; preds = %149, %145
  call void @llvm.lifetime.end.p0(i64 4, ptr %11) #9
  call void @llvm.lifetime.end.p0(i64 4, ptr %10) #9
  call void @llvm.lifetime.end.p0(i64 4, ptr %9) #9
  call void @llvm.lifetime.end.p0(i64 4, ptr %8) #9
  call void @llvm.lifetime.end.p0(i64 8, ptr %7) #9
  call void @llvm.lifetime.end.p0(i64 8, ptr %6) #9
  call void @llvm.lifetime.end.p0(i64 4, ptr %5) #9
  ret void
}