; Function Attrs: mustprogress nofree norecurse nosync nounwind memory(readwrite, inaccessiblemem: none) uwtable
define internal fastcc void @_ZN6dmg_fpL6hexnanEPNS_1UEPPKc(ptr noundef nonnull writeonly captures(none) %0, ptr noundef nonnull captures(none) %1) unnamed_addr #2 {
  %3 = load i8, ptr getelementptr inbounds nuw (i8, ptr @_ZN6dmg_fpL6hexdigE, i64 48), align 16, !tbaa !3
  %.not = icmp eq i8 %3, 0
  br i1 %.not, label %.lr.ph.i.i, label %_ZN6dmg_fpL11hexdig_initEv.exit

.lr.ph.i.i:                                       ; preds = %2, %.lr.ph.i.i
  %indvars.iv.i.i = phi i64 [ %indvars.iv.next.i.i, %.lr.ph.i.i ], [ 0, %2 ]
  %4 = phi i8 [ %10, %.lr.ph.i.i ], [ 48, %2 ]
  %5 = trunc i64 %indvars.iv.i.i to i8
  %6 = add i8 %5, 16
  %7 = zext i8 %4 to i64
  %8 = getelementptr inbounds nuw i8, ptr @_ZN6dmg_fpL6hexdigE, i64 %7
  store i8 %6, ptr %8, align 1, !tbaa !3
  %indvars.iv.next.i.i = add nuw nsw i64 %indvars.iv.i.i, 1
  %9 = getelementptr inbounds nuw i8, ptr @.str.6, i64 %indvars.iv.next.i.i
  %10 = load i8, ptr %9, align 1, !tbaa !3
  %exitcond.i = icmp eq i64 %indvars.iv.next.i.i, 10
  br i1 %exitcond.i, label %.lr.ph.i1.i, label %.lr.ph.i.i, !llvm.loop !44

.lr.ph.i1.i:                                      ; preds = %.lr.ph.i.i, %.lr.ph.i1.i
  %indvars.iv.i2.i = phi i64 [ %indvars.iv.next.i3.i, %.lr.ph.i1.i ], [ 0, %.lr.ph.i.i ]
  %11 = phi i8 [ %17, %.lr.ph.i1.i ], [ 97, %.lr.ph.i.i ]
  %12 = trunc i64 %indvars.iv.i2.i to i8
  %13 = add i8 %12, 26
  %14 = zext i8 %11 to i64
  %15 = getelementptr inbounds nuw i8, ptr @_ZN6dmg_fpL6hexdigE, i64 %14
  store i8 %13, ptr %15, align 1, !tbaa !3
  %indvars.iv.next.i3.i = add nuw nsw i64 %indvars.iv.i2.i, 1
  %16 = getelementptr inbounds nuw i8, ptr @.str.7, i64 %indvars.iv.next.i3.i
  %17 = load i8, ptr %16, align 1, !tbaa !3
  %exitcond11.i = icmp eq i64 %indvars.iv.next.i3.i, 6
  br i1 %exitcond11.i, label %.lr.ph.i6.i, label %.lr.ph.i1.i, !llvm.loop !44

.lr.ph.i6.i:                                      ; preds = %.lr.ph.i1.i, %.lr.ph.i6.i
  %indvars.iv.i7.i = phi i64 [ %indvars.iv.next.i8.i, %.lr.ph.i6.i ], [ 0, %.lr.ph.i1.i ]
  %18 = phi i8 [ %24, %.lr.ph.i6.i ], [ 65, %.lr.ph.i1.i ]
  %19 = trunc i64 %indvars.iv.i7.i to i8
  %20 = add i8 %19, 26
  %21 = zext i8 %18 to i64
  %22 = getelementptr inbounds nuw i8, ptr @_ZN6dmg_fpL6hexdigE, i64 %21
  store i8 %20, ptr %22, align 1, !tbaa !3
  %indvars.iv.next.i8.i = add nuw nsw i64 %indvars.iv.i7.i, 1
  %23 = getelementptr inbounds nuw i8, ptr @.str.8, i64 %indvars.iv.next.i8.i
  %24 = load i8, ptr %23, align 1, !tbaa !3
  %exitcond12.i = icmp eq i64 %indvars.iv.next.i8.i, 6
  br i1 %exitcond12.i, label %_ZN6dmg_fpL11hexdig_initEv.exit, label %.lr.ph.i6.i, !llvm.loop !44

_ZN6dmg_fpL11hexdig_initEv.exit:                  ; preds = %.lr.ph.i6.i, %2
  %25 = load ptr, ptr %1, align 8, !tbaa !6
  br label %26

26:                                               ; preds = %26, %_ZN6dmg_fpL11hexdig_initEv.exit
  %.045 = phi ptr [ %25, %_ZN6dmg_fpL11hexdig_initEv.exit ], [ %.042.in.in, %26 ]
  %.042.in.in = getelementptr inbounds nuw i8, ptr %.045, i64 1
  %.042.in = load i8, ptr %.042.in.in, align 1, !tbaa !3
  %27 = add i8 %.042.in, -1
  %28 = icmp ult i8 %27, 32
  br i1 %28, label %26, label %29, !llvm.loop !45

29:                                               ; preds = %26
  %30 = icmp eq i8 %.042.in, 48
  br i1 %30, label %31, label %35

31:                                               ; preds = %29
  %32 = getelementptr inbounds nuw i8, ptr %.045, i64 2
  %33 = load i8, ptr %32, align 1, !tbaa !3
  switch i8 %33, label %.lr.ph.preheader [
    i8 120, label %34
    i8 88, label %34
  ]

34:                                               ; preds = %31, %31
  %.24765.phi.trans.insert = getelementptr inbounds nuw i8, ptr %.045, i64 3
  %.143.in66.pre = load i8, ptr %.24765.phi.trans.insert, align 1, !tbaa !3
  br label %35

35:                                               ; preds = %34, %29
  %.143.in66 = phi i8 [ %.143.in66.pre, %34 ], [ %.042.in, %29 ]
  %.146 = phi ptr [ %32, %34 ], [ %.045, %29 ]
  %.not5167 = icmp eq i8 %.143.in66, 0
  br i1 %.not5167, label %.loopexit, label %.lr.ph.preheader

.lr.ph.preheader:                                 ; preds = %31, %35
  %.14687 = phi ptr [ %.146, %35 ], [ %.045, %31 ]
  %.143.in6686 = phi i8 [ %.143.in66, %35 ], [ 48, %31 ]
  %.24765 = getelementptr inbounds nuw i8, ptr %.14687, i64 1
  br label %.lr.ph

.lr.ph:                                           ; preds = %.lr.ph.preheader, %58
  %.143.in74 = phi i8 [ %.143.in, %58 ], [ %.143.in6686, %.lr.ph.preheader ]
  %.24773 = phi ptr [ %.247, %58 ], [ %.24765, %.lr.ph.preheader ]
  %.072 = phi i32 [ %.1, %58 ], [ 0, %.lr.ph.preheader ]
  %.03871 = phi i32 [ %.139, %58 ], [ 1, %.lr.ph.preheader ]
  %.04070 = phi i32 [ %.141, %58 ], [ 0, %.lr.ph.preheader ]
  %.sroa.0.069 = phi i32 [ %.sroa.0.1, %58 ], [ 0, %.lr.ph.preheader ]
  %.sroa.9.068 = phi i32 [ %.sroa.9.1, %58 ], [ 0, %.lr.ph.preheader ]
  %36 = zext i8 %.143.in74 to i64
  %37 = getelementptr inbounds nuw [256 x i8], ptr @_ZN6dmg_fpL6hexdigE, i64 0, i64 %36
  %38 = load i8, ptr %37, align 1, !tbaa !3
  %.not52 = icmp eq i8 %38, 0
  br i1 %.not52, label %45, label %39

39:                                               ; preds = %.lr.ph
  %40 = and i8 %38, 15
  %41 = zext nneg i8 %40 to i32
  %.not54 = icmp eq i32 %.072, 0
  %spec.select = select i1 %.not54, i32 %.sroa.9.068, i32 0
  %spec.select56 = select i1 %.not54, i32 %.sroa.0.069, i32 %.sroa.9.068
  %.not55 = icmp eq i32 %.03871, 0
  %42 = tail call i32 @llvm.fshl.i32(i32 %spec.select56, i32 %spec.select, i32 4)
  %.sroa.0.3 = select i1 %.not55, i32 %spec.select56, i32 %42
  %43 = shl i32 %spec.select, 4
  %44 = or disjoint i32 %43, %41
  br label %58

45:                                               ; preds = %.lr.ph
  %46 = icmp ult i8 %.143.in74, 33
  br i1 %46, label %47, label %.preheader

.preheader:                                       ; preds = %45
  %.143.le = zext i8 %.143.in74 to i32
  br label %51

47:                                               ; preds = %45
  %48 = icmp ne i32 %.03871, 0
  %49 = icmp ne i32 %.04070, 0
  %or.cond = select i1 %48, i1 %49, i1 false
  br i1 %or.cond, label %50, label %58

50:                                               ; preds = %47
  br label %58

51:                                               ; preds = %.preheader, %55
  %.3 = phi ptr [ %53, %55 ], [ %.24773, %.preheader ]
  %.244 = phi i32 [ %57, %55 ], [ %.143.le, %.preheader ]
  %52 = icmp eq i32 %.244, 41
  %53 = getelementptr inbounds nuw i8, ptr %.3, i64 1
  br i1 %52, label %54, label %55

54:                                               ; preds = %51
  store ptr %53, ptr %1, align 8, !tbaa !6
  br label %.loopexit

55:                                               ; preds = %51
  %56 = load i8, ptr %53, align 1, !tbaa !3
  %57 = sext i8 %56 to i32
  %.not53 = icmp eq i8 %56, 0
  br i1 %.not53, label %.loopexit, label %51, !llvm.loop !46

58:                                               ; preds = %47, %50, %39
  %.sroa.9.1 = phi i32 [ %44, %39 ], [ %.sroa.9.068, %50 ], [ %.sroa.9.068, %47 ]
  %.sroa.0.1 = phi i32 [ %.sroa.0.3, %39 ], [ %.sroa.0.069, %50 ], [ %.sroa.0.069, %47 ]
  %.141 = phi i32 [ 1, %39 ], [ 1, %50 ], [ %.04070, %47 ]
  %.139 = phi i32 [ %.03871, %39 ], [ 0, %50 ], [ %.03871, %47 ]
  %.1 = phi i32 [ 0, %39 ], [ 1, %50 ], [ %.072, %47 ]
  %.247 = getelementptr inbounds nuw i8, ptr %.24773, i64 1
  %.143.in = load i8, ptr %.247, align 1, !tbaa !3
  %.not51 = icmp eq i8 %.143.in, 0
  br i1 %.not51, label %.loopexit, label %.lr.ph, !llvm.loop !47

.loopexit:                                        ; preds = %58, %55, %35, %54
  %.sroa.9.064 = phi i32 [ %.sroa.9.068, %54 ], [ 0, %35 ], [ %.sroa.9.068, %55 ], [ %.sroa.9.1, %58 ]
  %.sroa.0.062 = phi i32 [ %.sroa.0.069, %54 ], [ 0, %35 ], [ %.sroa.0.069, %55 ], [ %.sroa.0.1, %58 ]
  %59 = and i32 %.sroa.0.062, 1048575
  %60 = icmp ne i32 %59, 0
  %61 = icmp ne i32 %.sroa.9.064, 0
  %or.cond4 = select i1 %60, i1 true, i1 %61
  br i1 %or.cond4, label %62, label %65

62:                                               ; preds = %.loopexit
  %63 = or disjoint i32 %59, 2146435072
  %64 = getelementptr inbounds nuw i8, ptr %0, i64 4
  store i32 %63, ptr %64, align 4, !tbaa !3
  store i32 %.sroa.9.064, ptr %0, align 8, !tbaa !3
  br label %65

65:                                               ; preds = %.loopexit, %62
  ret void
}